target datalayout = "e-m:e-p270:32:32-p271:32:32-p272:64:64-i64:64-f80:128-n8:16:32:64-S128"
target triple = "x86_64-pc-linux-gnu"

%struct.stu = type { [20 x i8], [3 x i32] }

@.str = private unnamed_addr constant [3 x i8] c"%d\00", align 1
@.str.1 = private unnamed_addr constant [9 x i8] c"%s %d %d\00", align 1
@.str.2 = private unnamed_addr constant [7 x i8] c"%s %d\0A\00", align 1

; Function Attrs: noinline nounwind uwtable
define dso_local i32 @main() #0 {
  %1 = alloca i32, align 4
  %2 = alloca i32, align 4
  %3 = alloca i32, align 4
  %4 = alloca i32, align 4
  %5 = alloca i32, align 4
  %6 = alloca i32, align 4
  %7 = alloca i32, align 4
  %8 = alloca [100000 x %struct.stu], align 16
  store i32 0, i32* %1, align 4
  %9 = call i32 (i8*, ...) @__isoc99_scanf(i8* getelementptr inbounds ([3 x i8], [3 x i8]* @.str, i64 0, i64 0), i32* %2)
  store i32 0, i32* %4, align 4
  store i32 0, i32* %5, align 4
  store i32 0, i32* %6, align 4
  store i32 0, i32* %7, align 4
  store i32 0, i32* %3, align 4
  br label %10

10:                                               ; preds = %49, %0
  %11 = load i32, i32* %3, align 4
  %12 = load i32, i32* %2, align 4
  %13 = icmp slt i32 %11, %12
  br i1 %13, label %14, label %52

14:                                               ; preds = %10
  %15 = load i32, i32* %3, align 4
  %16 = sext i32 %15 to i64
  %17 = getelementptr inbounds [100000 x %struct.stu], [100000 x %struct.stu]* %8, i64 0, i64 %16
  %18 = getelementptr inbounds %struct.stu, %struct.stu* %17, i32 0, i32 0
  %19 = getelementptr inbounds [20 x i8], [20 x i8]* %18, i64 0, i64 0
  %20 = load i32, i32* %3, align 4
  %21 = sext i32 %20 to i64
  %22 = getelementptr inbounds [100000 x %struct.stu], [100000 x %struct.stu]* %8, i64 0, i64 %21
  %23 = getelementptr inbounds %struct.stu, %struct.stu* %22, i32 0, i32 1
  %24 = getelementptr inbounds [3 x i32], [3 x i32]* %23, i64 0, i64 0
  %25 = load i32, i32* %3, align 4
  %26 = sext i32 %25 to i64
  %27 = getelementptr inbounds [100000 x %struct.stu], [100000 x %struct.stu]* %8, i64 0, i64 %26
  %28 = getelementptr inbounds %struct.stu, %struct.stu* %27, i32 0, i32 1
  %29 = getelementptr inbounds [3 x i32], [3 x i32]* %28, i64 0, i64 1
  %30 = call i32 (i8*, ...) @__isoc99_scanf(i8* getelementptr inbounds ([9 x i8], [9 x i8]* @.str.1, i64 0, i64 0), i8* %19, i32* %24, i32* %29)
  %31 = load i32, i32* %3, align 4
  %32 = sext i32 %31 to i64
  %33 = getelementptr inbounds [100000 x %struct.stu], [100000 x %struct.stu]* %8, i64 0, i64 %32
  %34 = getelementptr inbounds %struct.stu, %struct.stu* %33, i32 0, i32 1
  %35 = getelementptr inbounds [3 x i32], [3 x i32]* %34, i64 0, i64 0
  %36 = load i32, i32* %35, align 4
  %37 = load i32, i32* %3, align 4
  %38 = sext i32 %37 to i64
  %39 = getelementptr inbounds [100000 x %struct.stu], [100000 x %struct.stu]* %8, i64 0, i64 %38
  %40 = getelementptr inbounds %struct.stu, %struct.stu* %39, i32 0, i32 1
  %41 = getelementptr inbounds [3 x i32], [3 x i32]* %40, i64 0, i64 1
  %42 = load i32, i32* %41, align 4
  %43 = add nsw i32 %36, %42
  %44 = load i32, i32* %3, align 4
  %45 = sext i32 %44 to i64
  %46 = getelementptr inbounds [100000 x %struct.stu], [100000 x %struct.stu]* %8, i64 0, i64 %45
  %47 = getelementptr inbounds %struct.stu, %struct.stu* %46, i32 0, i32 1
  %48 = getelementptr inbounds [3 x i32], [3 x i32]* %47, i64 0, i64 2
  store i32 %43, i32* %48, align 4
  br label %49

49:                                               ; preds = %14
  %50 = load i32, i32* %3, align 4
  %51 = add nsw i32 %50, 1
  store i32 %51, i32* %3, align 4
  br label %10

52:                                               ; preds = %10
  store i32 0, i32* %3, align 4
  br label %53

53:                                               ; preds = %75, %52
  %54 = load i32, i32* %3, align 4
  %55 = load i32, i32* %2, align 4
  %56 = icmp slt i32 %54, %55
  br i1 %56, label %57, label %78

57:                                               ; preds = %53
  %58 = load i32, i32* %3, align 4
  %59 = sext i32 %58 to i64
  %60 = getelementptr inbounds [100000 x %struct.stu], [100000 x %struct.stu]* %8, i64 0, i64 %59
  %61 = getelementptr inbounds %struct.stu, %struct.stu* %60, i32 0, i32 1
  %62 = getelementptr inbounds [3 x i32], [3 x i32]* %61, i64 0, i64 2
  %63 = load i32, i32* %62, align 4
  %64 = load i32, i32* %7, align 4
  %65 = icmp sgt i32 %63, %64
  br i1 %65, label %66, label %74

66:                                               ; preds = %57
  %67 = load i32, i32* %3, align 4
  %68 = sext i32 %67 to i64
  %69 = getelementptr inbounds [100000 x %struct.stu], [100000 x %struct.stu]* %8, i64 0, i64 %68
  %70 = getelementptr inbounds %struct.stu, %struct.stu* %69, i32 0, i32 1
  %71 = getelementptr inbounds [3 x i32], [3 x i32]* %70, i64 0, i64 2
  %72 = load i32, i32* %71, align 4
  store i32 %72, i32* %7, align 4
  %73 = load i32, i32* %3, align 4
  store i32 %73, i32* %4, align 4
  br label %74

74:                                               ; preds = %66, %57
  br label %75

75:                                               ; preds = %74
  %76 = load i32, i32* %3, align 4
  %77 = add nsw i32 %76, 1
  store i32 %77, i32* %3, align 4
  br label %53

78:                                               ; preds = %53
  %79 = load i32, i32* %4, align 4
  %80 = sext i32 %79 to i64
  %81 = getelementptr inbounds [100000 x %struct.stu], [100000 x %struct.stu]* %8, i64 0, i64 %80
  %82 = getelementptr inbounds %struct.stu, %struct.stu* %81, i32 0, i32 0
  %83 = getelementptr inbounds [20 x i8], [20 x i8]* %82, i64 0, i64 0
  %84 = load i32, i32* %7, align 4
  %85 = call i32 (i8*, ...) @printf(i8* getelementptr inbounds ([7 x i8], [7 x i8]* @.str.2, i64 0, i64 0), i8* %83, i32 %84)
  store i32 0, i32* %7, align 4
  store i32 0, i32* %3, align 4
  br label %86

86:                                               ; preds = %126, %78
  %87 = load i32, i32* %3, align 4
  %88 = load i32, i32* %2, align 4
  %89 = icmp slt i32 %87, %88
  br i1 %89, label %90, label %129

90:                                               ; preds = %86
  %91 = load i32, i32* %3, align 4
  %92 = sext i32 %91 to i64
  %93 = getelementptr inbounds [100000 x %struct.stu], [100000 x %struct.stu]* %8, i64 0, i64 %92
  %94 = getelementptr inbounds %struct.stu, %struct.stu* %93, i32 0, i32 1
  %95 = getelementptr inbounds [3 x i32], [3 x i32]* %94, i64 0, i64 2
  %96 = load i32, i32* %95, align 4
  %97 = load i32, i32* %4, align 4
  %98 = sext i32 %97 to i64
  %99 = getelementptr inbounds [100000 x %struct.stu], [100000 x %struct.stu]* %8, i64 0, i64 %98
  %100 = getelementptr inbounds %struct.stu, %struct.stu* %99, i32 0, i32 1
  %101 = getelementptr inbounds [3 x i32], [3 x i32]* %100, i64 0, i64 2
  %102 = load i32, i32* %101, align 4
  %103 = icmp sle i32 %96, %102
  br i1 %103, label %104, label %125

104:                                              ; preds = %90
  %105 = load i32, i32* %3, align 4
  %106 = sext i32 %105 to i64
  %107 = getelementptr inbounds [100000 x %struct.stu], [100000 x %struct.stu]* %8, i64 0, i64 %106
  %108 = getelementptr inbounds %struct.stu, %struct.stu* %107, i32 0, i32 1
  %109 = getelementptr inbounds [3 x i32], [3 x i32]* %108, i64 0, i64 2
  %110 = load i32, i32* %109, align 4
  %111 = load i32, i32* %7, align 4
  %112 = icmp sgt i32 %110, %111
  br i1 %112, label %113, label %125

113:                                              ; preds = %104
  %114 = load i32, i32* %3, align 4
  %115 = load i32, i32* %4, align 4
  %116 = icmp ne i32 %114, %115
  br i1 %116, label %117, label %125

117:                                              ; preds = %113
  %118 = load i32, i32* %3, align 4
  %119 = sext i32 %118 to i64
  %120 = getelementptr inbounds [100000 x %struct.stu], [100000 x %struct.stu]* %8, i64 0, i64 %119
  %121 = getelementptr inbounds %struct.stu, %struct.stu* %120, i32 0, i32 1
  %122 = getelementptr inbounds [3 x i32], [3 x i32]* %121, i64 0, i64 2
  %123 = load i32, i32* %122, align 4
  store i32 %123, i32* %7, align 4
  %124 = load i32, i32* %3, align 4
  store i32 %124, i32* %5, align 4
  br label %125

125:                                              ; preds = %117, %113, %104, %90
  br label %126

126:                                              ; preds = %125
  %127 = load i32, i32* %3, align 4
  %128 = add nsw i32 %127, 1
  store i32 %128, i32* %3, align 4
  br label %86

129:                                              ; preds = %86
  %130 = load i32, i32* %5, align 4
  %131 = sext i32 %130 to i64
  %132 = getelementptr inbounds [100000 x %struct.stu], [100000 x %struct.stu]* %8, i64 0, i64 %131
  %133 = getelementptr inbounds %struct.stu, %struct.stu* %132, i32 0, i32 0
  %134 = getelementptr inbounds [20 x i8], [20 x i8]* %133, i64 0, i64 0
  %135 = load i32, i32* %7, align 4
  %136 = call i32 (i8*, ...) @printf(i8* getelementptr inbounds ([7 x i8], [7 x i8]* @.str.2, i64 0, i64 0), i8* %134, i32 %135)
  store i32 0, i32* %7, align 4
  store i32 0, i32* %3, align 4
  br label %137

137:                                              ; preds = %184, %129
  %138 = load i32, i32* %3, align 4
  %139 = load i32, i32* %2, align 4
  %140 = icmp slt i32 %138, %139
  br i1 %140, label %141, label %187

141:                                              ; preds = %137
  %142 = load i32, i32* %3, align 4
  %143 = sext i32 %142 to i64
  %144 = getelementptr inbounds [100000 x %struct.stu], [100000 x %struct.stu]* %8, i64 0, i64 %143
  %145 = getelementptr inbounds %struct.stu, %struct.stu* %144, i32 0, i32 1
  %146 = getelementptr inbounds [3 x i32], [3 x i32]* %145, i64 0, i64 2
  %147 = load i32, i32* %146, align 4
  %148 = load i32, i32* %5, align 4
  %149 = sext i32 %148 to i64
  %150 = getelementptr inbounds [100000 x %struct.stu], [100000 x %struct.stu]* %8, i64 0, i64 %149
  %151 = getelementptr inbounds %struct.stu, %struct.stu* %150, i32 0, i32 1
  %152 = getelementptr inbounds [3 x i32], [3 x i32]* %151, i64 0, i64 2
  %153 = load i32, i32* %152, align 4
  %154 = icmp sle i32 %147, %153
  br i1 %154, label %155, label %183

155:                                              ; preds = %141
  %156 = load i32, i32* %3, align 4
  %157 = sext i32 %156 to i64
  %158 = getelementptr inbounds [100000 x %struct.stu], [100000 x %struct.stu]* %8, i64 0, i64 %157
  %159 = getelementptr inbounds %struct.stu, %struct.stu* %158, i32 0, i32 1
  %160 = getelementptr inbounds [3 x i32], [3 x i32]* %159, i64 0, i64 2
  %161 = load i32, i32* %160, align 4
  %162 = load i32, i32* %7, align 4
  %163 = icmp sgt i32 %161, %162
  br i1 %163, label %164, label %183

164:                                              ; preds = %155
  %165 = load i32, i32* %3, align 4
  %166 = load i32, i32* %4, align 4
  %167 = icmp ne i32 %165, %166
  %168 = zext i1 %167 to i32
  %169 = load i32, i32* %3, align 4
  %170 = load i32, i32* %5, align 4
  %171 = icmp ne i32 %169, %170
  %172 = zext i1 %171 to i32
  %173 = and i32 %168, %172
  %174 = icmp ne i32 %173, 0
  br i1 %174, label %175, label %183

175:                                              ; preds = %164
  %176 = load i32, i32* %3, align 4
  %177 = sext i32 %176 to i64
  %178 = getelementptr inbounds [100000 x %struct.stu], [100000 x %struct.stu]* %8, i64 0, i64 %177
  %179 = getelementptr inbounds %struct.stu, %struct.stu* %178, i32 0, i32 1
  %180 = getelementptr inbounds [3 x i32], [3 x i32]* %179, i64 0, i64 2
  %181 = load i32, i32* %180, align 4
  store i32 %181, i32* %7, align 4
  %182 = load i32, i32* %3, align 4
  store i32 %182, i32* %6, align 4
  br label %183

183:                                              ; preds = %175, %164, %155, %141
  br label %184

184:                                              ; preds = %183
  %185 = load i32, i32* %3, align 4
  %186 = add nsw i32 %185, 1
  store i32 %186, i32* %3, align 4
  br label %137

187:                                              ; preds = %137
  %188 = load i32, i32* %6, align 4
  %189 = sext i32 %188 to i64
  %190 = getelementptr inbounds [100000 x %struct.stu], [100000 x %struct.stu]* %8, i64 0, i64 %189
  %191 = getelementptr inbounds %struct.stu, %struct.stu* %190, i32 0, i32 0
  %192 = getelementptr inbounds [20 x i8], [20 x i8]* %191, i64 0, i64 0
  %193 = load i32, i32* %7, align 4
  %194 = call i32 (i8*, ...) @printf(i8* getelementptr inbounds ([7 x i8], [7 x i8]* @.str.2, i64 0, i64 0), i8* %192, i32 %193)
  %195 = load i32, i32* %1, align 4
  ret i32 %195
}